; Function Attrs: mustprogress nofree norecurse nosync nounwind willreturn memory(none) uwtable
define internal zeroext i1 @MultiXactOffsetPagePrecedes(i64 noundef %0, i64 noundef %1) #4 {
  %.tr = trunc i64 %0 to i32
  %3 = shl i32 %.tr, 11
  %.tr8 = trunc i64 %1 to i32
  %4 = shl i32 %.tr8, 11
  %5 = sub i32 %3, %4
  %6 = add i32 %3, -2047
  %7 = sub i32 %6, %4
  %8 = and i32 %5, %7
  %9 = icmp slt i32 %8, 0
  ret i1 %9
}